target datalayout = "e-m:e-p270:32:32-p271:32:32-p272:64:64-i64:64-i128:128-f80:128-n8:16:32:64-S128"
target triple = "x86_64-pc-linux-gnu"

%struct.bin_info_s = type { i64, i64, i32, i32, %struct.bitmap_info_s }
%struct.bitmap_info_s = type { i64, i64 }

@je_bin_infos = external global [36 x %struct.bin_info_s], align 16

; Function Attrs: nounwind uwtable
define internal i32 @arenas_bin_i_slab_size_ctl(ptr noundef %0, ptr noundef %1, i64 noundef %2, ptr noundef %3, ptr noundef %4, ptr noundef %5, i64 noundef %6) #0 {
  %8 = alloca i32, align 4
  %9 = alloca ptr, align 8
  %10 = alloca ptr, align 8
  %11 = alloca i64, align 8
  %12 = alloca ptr, align 8
  %13 = alloca ptr, align 8
  %14 = alloca ptr, align 8
  %15 = alloca i64, align 8
  %16 = alloca i32, align 4
  %17 = alloca i64, align 8
  %18 = alloca i64, align 8
  %19 = alloca i32, align 4
  store ptr %0, ptr %9, align 8, !tbaa !4
  store ptr %1, ptr %10, align 8, !tbaa !12
  store i64 %2, ptr %11, align 8, !tbaa !14
  store ptr %3, ptr %12, align 8, !tbaa !11
  store ptr %4, ptr %13, align 8, !tbaa !12
  store ptr %5, ptr %14, align 8, !tbaa !11
  store i64 %6, ptr %15, align 8, !tbaa !14
  call void @llvm.lifetime.start.p0(i64 4, ptr %16) #13
  call void @llvm.lifetime.start.p0(i64 8, ptr %17) #13
  br label %20

20:                                               ; preds = %7
  %21 = load ptr, ptr %14, align 8, !tbaa !11
  %22 = icmp ne ptr %21, null
  br i1 %22, label %26, label %23

23:                                               ; preds = %20
  %24 = load i64, ptr %15, align 8, !tbaa !14
  %25 = icmp ne i64 %24, 0
  br i1 %25, label %26, label %27

26:                                               ; preds = %23, %20
  store i32 1, ptr %16, align 4, !tbaa !20
  br label %67

27:                                               ; preds = %23
  br label %28

28:                                               ; preds = %27
  br label %29

29:                                               ; preds = %28
  %30 = load ptr, ptr %10, align 8, !tbaa !12
  %31 = getelementptr inbounds i64, ptr %30, i64 2
  %32 = load i64, ptr %31, align 8, !tbaa !14
  %33 = getelementptr inbounds nuw [36 x %struct.bin_info_s], ptr @je_bin_infos, i64 0, i64 %32
  %34 = getelementptr inbounds nuw %struct.bin_info_s, ptr %33, i32 0, i32 1
  %35 = load i64, ptr %34, align 8, !tbaa !268
  store i64 %35, ptr %17, align 8, !tbaa !14
  br label %36

36:                                               ; preds = %29
  %37 = load ptr, ptr %12, align 8, !tbaa !11
  %38 = icmp ne ptr %37, null
  br i1 %38, label %39, label %64

39:                                               ; preds = %36
  %40 = load ptr, ptr %13, align 8, !tbaa !12
  %41 = icmp ne ptr %40, null
  br i1 %41, label %42, label %64

42:                                               ; preds = %39
  %43 = load ptr, ptr %13, align 8, !tbaa !12
  %44 = load i64, ptr %43, align 8, !tbaa !14
  %45 = icmp ne i64 %44, 8
  br i1 %45, label %46, label %61

46:                                               ; preds = %42
  call void @llvm.lifetime.start.p0(i64 8, ptr %18) #13
  %47 = load ptr, ptr %13, align 8, !tbaa !12
  %48 = load i64, ptr %47, align 8, !tbaa !14
  %49 = icmp ule i64 8, %48
  br i1 %49, label %50, label %51

50:                                               ; preds = %46
  br label %54

51:                                               ; preds = %46
  %52 = load ptr, ptr %13, align 8, !tbaa !12
  %53 = load i64, ptr %52, align 8, !tbaa !14
  br label %54

54:                                               ; preds = %51, %50
  %55 = phi i64 [ 8, %50 ], [ %53, %51 ]
  store i64 %55, ptr %18, align 8, !tbaa !14
  %56 = load ptr, ptr %12, align 8, !tbaa !11
  %57 = load i64, ptr %18, align 8, !tbaa !14
  call void @llvm.memcpy.p0.p0.i64(ptr align 1 %56, ptr align 1 %17, i64 %57, i1 false)
  %58 = load i64, ptr %18, align 8, !tbaa !14
  %59 = load ptr, ptr %13, align 8, !tbaa !12
  store i64 %58, ptr %59, align 8, !tbaa !14
  store i32 22, ptr %16, align 4, !tbaa !20
  store i32 4, ptr %19, align 4
  call void @llvm.lifetime.end.p0(i64 8, ptr %18) #13
  %60 = load i32, ptr %19, align 4
  switch i32 %60, label %69 [
    i32 4, label %67
  ]

61:                                               ; preds = %42
  %62 = load i64, ptr %17, align 8, !tbaa !14
  %63 = load ptr, ptr %12, align 8, !tbaa !11
  store i64 %62, ptr %63, align 8, !tbaa !14
  br label %64

64:                                               ; preds = %61, %39, %36
  br label %65

65:                                               ; preds = %64
  br label %66

66:                                               ; preds = %65
  store i32 0, ptr %16, align 4, !tbaa !20
  br label %67

67:                                               ; preds = %66, %54, %26
  %68 = load i32, ptr %16, align 4, !tbaa !20
  store i32 %68, ptr %8, align 4
  store i32 1, ptr %19, align 4
  br label %69

69:                                               ; preds = %67, %54
  call void @llvm.lifetime.end.p0(i64 8, ptr %17) #13
  call void @llvm.lifetime.end.p0(i64 4, ptr %16) #13
  %70 = load i32, ptr %8, align 4
  ret i32 %70
}