; Function Attrs: mustprogress nofree norecurse nosync nounwind willreturn memory(read, argmem: readwrite, inaccessiblemem: none) uwtable
define internal range(i32 0, 23) i32 @arenas_bin_i_slab_size_ctl(ptr readnone captures(none) %0, ptr noundef readonly captures(none) %1, i64 %2, ptr noundef writeonly captures(address_is_null) %3, ptr noundef captures(address_is_null) %4, ptr noundef readnone captures(address_is_null) %5, i64 noundef %6) #12 {
  %8 = alloca i64, align 8
  call void @llvm.lifetime.start.p0(i64 8, ptr nonnull %8)
  %9 = icmp ne ptr %5, null
  %10 = icmp ne i64 %6, 0
  %or.cond = or i1 %9, %10
  br i1 %or.cond, label %22, label %11

11:                                               ; preds = %7
  %12 = getelementptr inbounds nuw i8, ptr %1, i64 16
  %13 = load i64, ptr %12, align 8, !tbaa !4
  %14 = getelementptr inbounds nuw [36 x %struct.bin_info_s], ptr @je_bin_infos, i64 0, i64 %13, i32 1
  %15 = load i64, ptr %14, align 8, !tbaa !245
  store i64 %15, ptr %8, align 8, !tbaa !4
  %16 = icmp ne ptr %3, null
  %17 = icmp ne ptr %4, null
  %or.cond3 = and i1 %16, %17
  br i1 %or.cond3, label %18, label %22

18:                                               ; preds = %11
  %19 = load i64, ptr %4, align 8, !tbaa !4
  %.not = icmp eq i64 %19, 8
  br i1 %.not, label %21, label %20

20:                                               ; preds = %18
  %spec.select = tail call i64 @llvm.umin.i64(i64 %19, i64 8)
  call void @llvm.memcpy.p0.p0.i64(ptr nonnull align 1 %3, ptr nonnull align 8 %8, i64 %spec.select, i1 false)
  store i64 %spec.select, ptr %4, align 8, !tbaa !4
  br label %22

21:                                               ; preds = %18
  store i64 %15, ptr %3, align 8, !tbaa !4
  br label %22

22:                                               ; preds = %20, %7, %21, %11
  %.019 = phi i32 [ 22, %20 ], [ 1, %7 ], [ 0, %21 ], [ 0, %11 ]
  call void @llvm.lifetime.end.p0(i64 8, ptr nonnull %8)
  ret i32 %.019
}